target datalayout = "e-m:e-p270:32:32-p271:32:32-p272:64:64-i64:64-i128:128-f80:128-n8:16:32:64-S128"
target triple = "x86_64-pc-linux-gnu"

%struct.rb_parser_string = type { i32, ptr, i64, ptr }
%struct.OnigEncodingTypeST = type { ptr, ptr, i32, i32, ptr, ptr, ptr, ptr, ptr, ptr, ptr, ptr, ptr, ptr, ptr, ptr, ptr, i32, i32 }

@.str.538 = private unnamed_addr constant [5 x i8] c"%li\0B\00", align 1
@.str.681 = private unnamed_addr constant [62 x i8] c"regexp encoding option '%c' differs from source encoding '%s'\00", align 1

; Function Attrs: inlinehint nounwind sspstrong uwtable
define internal ptr @rb_enc_name(ptr noundef %0) #6 {
  %2 = alloca ptr, align 8
  store ptr %0, ptr %2, align 8, !tbaa !619
  %3 = load ptr, ptr %2, align 8, !tbaa !619
  %4 = getelementptr inbounds nuw %struct.OnigEncodingTypeST, ptr %3, i32 0, i32 1
  %5 = load ptr, ptr %4, align 8, !tbaa !680
  ret ptr %5
}

; Function Attrs: nounwind sspstrong uwtable
define internal ptr @rb_parser_str_get_encoding(ptr noundef %0) #0 {
  %2 = alloca ptr, align 8
  store ptr %0, ptr %2, align 8, !tbaa !614
  %3 = load ptr, ptr %2, align 8, !tbaa !614
  %4 = getelementptr inbounds nuw %struct.rb_parser_string, ptr %3, i32 0, i32 1
  %5 = load ptr, ptr %4, align 8, !tbaa !622
  ret ptr %5
}

; Function Attrs: nounwind sspstrong uwtable
define internal void @reg_fragment_enc_error(ptr noundef %0, ptr noundef %1, i32 noundef %2) #0 {
  %4 = alloca ptr, align 8
  %5 = alloca ptr, align 8
  %6 = alloca i32, align 4
  store ptr %0, ptr %4, align 8, !tbaa !6
  store ptr %1, ptr %5, align 8, !tbaa !614
  store i32 %2, ptr %6, align 4, !tbaa !14
  %7 = load ptr, ptr %4, align 8, !tbaa !6
  %8 = load i32, ptr %6, align 4, !tbaa !14
  %9 = load ptr, ptr %5, align 8, !tbaa !614
  %10 = call ptr @rb_parser_str_get_encoding(ptr noundef %9)
  %11 = call ptr @rb_enc_name(ptr noundef %10)
  call void (ptr, ptr, ...) @ripper_compile_error(ptr noundef %7, ptr noundef @.str.681, i32 noundef %8, ptr noundef %11)
  ret void
}

; Function Attrs: nounwind sspstrong uwtable
define internal void @reg_fragment_setenc(ptr noundef %0, ptr noundef %1, i32 noundef %2) #0 {
  %4 = alloca ptr, align 8
  %5 = alloca ptr, align 8
  %6 = alloca i32, align 4
  %7 = alloca i32, align 4
  store ptr %0, ptr %4, align 8, !tbaa !6
  store ptr %1, ptr %5, align 8, !tbaa !614
  store i32 %2, ptr %6, align 4, !tbaa !14
  call void @llvm.lifetime.start.p0(i64 4, ptr %7) #25
  %8 = load ptr, ptr %4, align 8, !tbaa !6
  %9 = load ptr, ptr %5, align 8, !tbaa !614
  %10 = load i32, ptr %6, align 4, !tbaa !14
  %11 = call i32 @rb_reg_fragment_setenc(ptr noundef %8, ptr noundef %9, i32 noundef %10)
  store i32 %11, ptr %7, align 4, !tbaa !14
  %12 = load i32, ptr %7, align 4, !tbaa !14
  %13 = icmp ne i32 %12, 0
  br i1 %13, label %14, label %18

14:                                               ; preds = %3
  %15 = load ptr, ptr %4, align 8, !tbaa !6
  %16 = load ptr, ptr %5, align 8, !tbaa !614
  %17 = load i32, ptr %7, align 4, !tbaa !14
  call void @reg_fragment_enc_error(ptr noundef %15, ptr noundef %16, i32 noundef %17)
  br label %18

18:                                               ; preds = %14, %3
  call void @llvm.lifetime.end.p0(i64 4, ptr %7) #25
  ret void
}

; Function Attrs: inlinehint nounwind sspstrong willreturn memory(none) uwtable
define internal zeroext i1 @RB_NIL_P(i64 noundef %0) #12 {
  %2 = alloca i64, align 8
  store i64 %0, ptr %2, align 8, !tbaa !16
  %3 = load i64, ptr %2, align 8, !tbaa !16
  %4 = icmp eq i64 %3, 4
  ret i1 %4
}

; Function Attrs: nounwind sspstrong uwtable
define internal i64 @parser_reg_compile(ptr noundef %0, ptr noundef %1, i32 noundef %2) #0 {
  %4 = alloca ptr, align 8
  %5 = alloca ptr, align 8
  %6 = alloca i32, align 4
  %7 = alloca i64, align 8
  store ptr %0, ptr %4, align 8, !tbaa !6
  store ptr %1, ptr %5, align 8, !tbaa !614
  store i32 %2, ptr %6, align 4, !tbaa !14
  call void @llvm.lifetime.start.p0(i64 8, ptr %7) #25
  %8 = load ptr, ptr %4, align 8, !tbaa !6
  %9 = load ptr, ptr %5, align 8, !tbaa !614
  %10 = load i32, ptr %6, align 4, !tbaa !14
  call void @reg_fragment_setenc(ptr noundef %8, ptr noundef %9, i32 noundef %10)
  %11 = load ptr, ptr %5, align 8, !tbaa !614
  %12 = call i64 @rb_str_new_parser_string(ptr noundef %11)
  store i64 %12, ptr %7, align 8, !tbaa !16
  %13 = load ptr, ptr %4, align 8, !tbaa !6
  %14 = load i64, ptr %7, align 8, !tbaa !16
  %15 = load i32, ptr %6, align 4, !tbaa !14
  %16 = call i64 @rb_parser_reg_compile(ptr noundef %13, i64 noundef %14, i32 noundef %15)
  call void @llvm.lifetime.end.p0(i64 8, ptr %7) #25
  ret i64 %16
}

; Function Attrs: nounwind sspstrong uwtable
define internal i64 @reg_compile(ptr noundef %0, ptr noundef %1, i32 noundef %2) #0 {
  %4 = alloca i64, align 8
  %5 = alloca ptr, align 8
  %6 = alloca ptr, align 8
  %7 = alloca i32, align 4
  %8 = alloca i64, align 8
  %9 = alloca i64, align 8
  %10 = alloca i64, align 8
  %11 = alloca i32, align 4
  store ptr %0, ptr %5, align 8, !tbaa !6
  store ptr %1, ptr %6, align 8, !tbaa !614
  store i32 %2, ptr %7, align 4, !tbaa !14
  call void @llvm.lifetime.start.p0(i64 8, ptr %8) #25
  call void @llvm.lifetime.start.p0(i64 8, ptr %9) #25
  %12 = call i64 @rb_errinfo()
  store i64 %12, ptr %9, align 8, !tbaa !16
  %13 = load ptr, ptr %5, align 8, !tbaa !6
  %14 = load ptr, ptr %6, align 8, !tbaa !614
  %15 = load i32, ptr %7, align 4, !tbaa !14
  %16 = call i64 @parser_reg_compile(ptr noundef %13, ptr noundef %14, i32 noundef %15)
  store i64 %16, ptr %8, align 8, !tbaa !16
  %17 = load i64, ptr %8, align 8, !tbaa !16
  %18 = call zeroext i1 @RB_NIL_P(i64 noundef %17) #28
  br i1 %18, label %19, label %25

19:                                               ; preds = %3
  call void @llvm.lifetime.start.p0(i64 8, ptr %10) #25
  %20 = call i64 @rb_errinfo()
  %21 = call i64 @rb_attr_get(i64 noundef %20, i64 noundef 3473)
  store i64 %21, ptr %10, align 8, !tbaa !16
  %22 = load i64, ptr %9, align 8, !tbaa !16
  call void @rb_set_errinfo(i64 noundef %22)
  %23 = load ptr, ptr %5, align 8, !tbaa !6
  %24 = load i64, ptr %10, align 8, !tbaa !16
  call void (ptr, ptr, ...) @ripper_compile_error(ptr noundef %23, ptr noundef @.str.538, i64 noundef %24)
  store i64 4, ptr %4, align 8
  store i32 1, ptr %11, align 4
  call void @llvm.lifetime.end.p0(i64 8, ptr %10) #25
  br label %27

25:                                               ; preds = %3
  %26 = load i64, ptr %8, align 8, !tbaa !16
  store i64 %26, ptr %4, align 8
  store i32 1, ptr %11, align 4
  br label %27

27:                                               ; preds = %25, %19
  call void @llvm.lifetime.end.p0(i64 8, ptr %9) #25
  call void @llvm.lifetime.end.p0(i64 8, ptr %8) #25
  %28 = load i64, ptr %4, align 8
  ret i64 %28
}