; Function Attrs: nounwind sspstrong uwtable
define internal fastcc void @reg_compile(ptr noundef %0, ptr noundef %1, i32 noundef %2) unnamed_addr #0 {
  %4 = tail call i64 @rb_errinfo() #31
  %5 = tail call i32 @rb_reg_fragment_setenc(ptr noundef %0, ptr noundef %1, i32 noundef %2) #31
  %.not.i.i = icmp eq i32 %5, 0
  br i1 %.not.i.i, label %parser_reg_compile.exit, label %6

6:                                                ; preds = %3
  %7 = getelementptr i8, ptr %1, i64 8
  %.val.i.i = load ptr, ptr %7, align 8, !tbaa !447
  %8 = getelementptr i8, ptr %.val.i.i, i64 8
  %.val.val.i.i = load ptr, ptr %8, align 8, !tbaa !486
  tail call void (ptr, ptr, ...) @ripper_compile_error(ptr noundef %0, ptr noundef nonnull @.str.681, i32 noundef range(i32 1, 0) %5, ptr noundef %.val.val.i.i) #31
  br label %parser_reg_compile.exit

parser_reg_compile.exit:                          ; preds = %3, %6
  %9 = tail call i64 @rb_str_new_parser_string(ptr noundef %1) #31
  %10 = tail call i64 @rb_parser_reg_compile(ptr noundef %0, i64 noundef %9, i32 noundef %2) #31
  %11 = icmp eq i64 %10, 4
  br i1 %11, label %12, label %15

12:                                               ; preds = %parser_reg_compile.exit
  %13 = tail call i64 @rb_errinfo() #31
  %14 = tail call i64 @rb_attr_get(i64 noundef %13, i64 noundef 3473) #31
  tail call void @rb_set_errinfo(i64 noundef %4) #31
  tail call void (ptr, ptr, ...) @ripper_compile_error(ptr noundef %0, ptr noundef nonnull @.str.538, i64 noundef %14) #31
  br label %15

15:                                               ; preds = %parser_reg_compile.exit, %12
  ret void
}